ccopy_reg
_reconstructor
p0
(cunirest
UnirestResponse
p1
c__builtin__
object
p2
Ntp3
Rp4
(dp5
S'_code'
p6
I200
sS'_body'
p7
(dp8
Vprobability
p9
(dp10
Vneg
p11
F0.5023050546678582
sVneutral
p12
F0.795654120555624
sVpos
p13
F0.4976949453321417
ssVlabel
p14
Vneutral
p15
ssS'_headers'
p16
(ihttplib
HTTPMessage
p17
(dp18
S'fp'
p19
NsS'status'
p20
S''
p21
sS'startofbody'
p22
NsS'startofheaders'
p23
NsS'subtype'
p24
S'json'
p25
sS'type'
p26
S'application/json'
p27
sS'maintype'
p28
S'application'
p29
sS'headers'
p30
(lp31
S'Content-Type: application/json\r\n'
p32
aS'Date: Fri, 03 May 2019 18:45:37 GMT\r\n'
p33
aS'ETag: "35733fbe98c6cb63fbb4ac8ec32ac018"\r\n'
p34
aS'Server: RapidAPI-1.0.16\r\n'
p35
aS'X-RapidAPI-Region: AWS - us-east-1\r\n'
p36
aS'X-RapidAPI-Version: 1.0.16\r\n'
p37
aS'X-RateLimit-queries-Limit: 45000\r\n'
p38
aS'X-RateLimit-queries-Remaining: 44795\r\n'
p39
aS'Content-Length: 124\r\n'
p40
aS'Connection: Close\r\n'
p41
asS'dict'
p42
(dp43
S'x-ratelimit-queries-limit'
p44
S'45000'
p45
sS'x-rapidapi-version'
p46
S'1.0.16'
p47
sS'x-ratelimit-queries-remaining'
p48
S'44795'
p49
sS'content-length'
p50
S'124'
p51
sS'server'
p52
S'RapidAPI-1.0.16'
p53
sS'x-rapidapi-region'
p54
S'AWS - us-east-1'
p55
sS'connection'
p56
S'Close'
p57
sS'etag'
p58
S'"35733fbe98c6cb63fbb4ac8ec32ac018"'
p59
sS'date'
p60
S'Fri, 03 May 2019 18:45:37 GMT'
p61
sS'content-type'
p62
S'application/json'
p63
ssS'typeheader'
p64
g63
sS'encodingheader'
p65
NsS'seekable'
p66
I0
sS'unixfrom'
p67
g21
sS'plisttext'
p68
g21
sS'plist'
p69
(lp70
sbsS'_raw_body'
p71
S'{"probability": {"neg": 0.50230505466785824, "neutral": 0.79565412055562401, "pos": 0.4976949453321417}, "label": "neutral"}'
p72
sb.