ccopy_reg
_reconstructor
p0
(cunirest
UnirestResponse
p1
c__builtin__
object
p2
Ntp3
Rp4
(dp5
S'_code'
p6
I200
sS'_body'
p7
(dp8
Vprobability
p9
(dp10
Vneg
p11
F0.5785078311768377
sVneutral
p12
F0.6861619027887219
sVpos
p13
F0.42149216882316226
ssVlabel
p14
Vneutral
p15
ssS'_headers'
p16
(ihttplib
HTTPMessage
p17
(dp18
S'fp'
p19
NsS'status'
p20
S''
p21
sS'startofbody'
p22
NsS'startofheaders'
p23
NsS'subtype'
p24
S'json'
p25
sS'type'
p26
S'application/json'
p27
sS'maintype'
p28
S'application'
p29
sS'headers'
p30
(lp31
S'Content-Type: application/json\r\n'
p32
aS'Date: Mon, 06 May 2019 21:45:15 GMT\r\n'
p33
aS'ETag: "00ad24fef3856481407147e3c5a6cd9f"\r\n'
p34
aS'Server: RapidAPI-1.0.16\r\n'
p35
aS'X-RapidAPI-Region: AWS - us-west-2\r\n'
p36
aS'X-RapidAPI-Version: 1.0.16\r\n'
p37
aS'X-RateLimit-queries-Limit: 45000\r\n'
p38
aS'X-RateLimit-queries-Remaining: 44445\r\n'
p39
aS'Content-Length: 125\r\n'
p40
aS'Connection: Close\r\n'
p41
asS'dict'
p42
(dp43
S'x-ratelimit-queries-limit'
p44
S'45000'
p45
sS'x-rapidapi-version'
p46
S'1.0.16'
p47
sS'x-ratelimit-queries-remaining'
p48
S'44445'
p49
sS'content-length'
p50
S'125'
p51
sS'server'
p52
S'RapidAPI-1.0.16'
p53
sS'x-rapidapi-region'
p54
S'AWS - us-west-2'
p55
sS'connection'
p56
S'Close'
p57
sS'etag'
p58
S'"00ad24fef3856481407147e3c5a6cd9f"'
p59
sS'date'
p60
S'Mon, 06 May 2019 21:45:15 GMT'
p61
sS'content-type'
p62
S'application/json'
p63
ssS'typeheader'
p64
g63
sS'encodingheader'
p65
NsS'seekable'
p66
I0
sS'unixfrom'
p67
g21
sS'plisttext'
p68
g21
sS'plist'
p69
(lp70
sbsS'_raw_body'
p71
S'{"probability": {"neg": 0.57850783117683768, "neutral": 0.68616190278872191, "pos": 0.42149216882316226}, "label": "neutral"}'
p72
sb.