ccopy_reg
_reconstructor
p0
(cunirest
UnirestResponse
p1
c__builtin__
object
p2
Ntp3
Rp4
(dp5
S'_code'
p6
I400
sS'_body'
p7
S'Form Validation Errors\ntext: This field is required.\n'
p8
sS'_headers'
p9
(ihttplib
HTTPMessage
p10
(dp11
S'fp'
p12
NsS'status'
p13
S''
p14
sS'startofbody'
p15
NsS'startofheaders'
p16
NsS'subtype'
p17
S'html'
p18
sS'type'
p19
S'text/html'
p20
sS'maintype'
p21
S'text'
p22
sS'headers'
p23
(lp24
S'Content-Type: text/html; charset=utf-8\r\n'
p25
aS'Date: Wed, 01 May 2019 22:49:48 GMT\r\n'
p26
aS'ETag: "a5c1e36c45cfbda1a6fd4e65eec310f6"\r\n'
p27
aS'Server: RapidAPI-1.0.16\r\n'
p28
aS'X-RapidAPI-Region: AWS - us-east-1\r\n'
p29
aS'X-RapidAPI-Version: 1.0.16\r\n'
p30
aS'X-RateLimit-queries-Limit: 45000\r\n'
p31
aS'X-RateLimit-queries-Remaining: 44817\r\n'
p32
aS'Content-Length: 53\r\n'
p33
aS'Connection: Close\r\n'
p34
asS'dict'
p35
(dp36
S'x-ratelimit-queries-limit'
p37
S'45000'
p38
sS'x-rapidapi-version'
p39
S'1.0.16'
p40
sS'x-ratelimit-queries-remaining'
p41
S'44817'
p42
sS'content-length'
p43
S'53'
p44
sS'server'
p45
S'RapidAPI-1.0.16'
p46
sS'x-rapidapi-region'
p47
S'AWS - us-east-1'
p48
sS'connection'
p49
S'Close'
p50
sS'etag'
p51
S'"a5c1e36c45cfbda1a6fd4e65eec310f6"'
p52
sS'date'
p53
S'Wed, 01 May 2019 22:49:48 GMT'
p54
sS'content-type'
p55
S'text/html; charset=utf-8'
p56
ssS'typeheader'
p57
g56
sS'encodingheader'
p58
NsS'seekable'
p59
I0
sS'unixfrom'
p60
g14
sS'plisttext'
p61
S'; charset=utf-8'
p62
sS'plist'
p63
(lp64
S'charset=utf-8'
p65
asbsS'_raw_body'
p66
g8
sb.