ccopy_reg
_reconstructor
p0
(cunirest
UnirestResponse
p1
c__builtin__
object
p2
Ntp3
Rp4
(dp5
S'_code'
p6
I200
sS'_body'
p7
(dp8
Vprobability
p9
(dp10
Vneg
p11
F0.4534935104958958
sVneutral
p12
F0.25255563363167605
sVpos
p13
F0.5465064895041042
ssVlabel
p14
Vpos
p15
ssS'_headers'
p16
(ihttplib
HTTPMessage
p17
(dp18
S'fp'
p19
NsS'status'
p20
S''
p21
sS'startofbody'
p22
NsS'startofheaders'
p23
NsS'subtype'
p24
S'json'
p25
sS'type'
p26
S'application/json'
p27
sS'maintype'
p28
S'application'
p29
sS'headers'
p30
(lp31
S'Content-Type: application/json\r\n'
p32
aS'Date: Tue, 07 May 2019 20:27:37 GMT\r\n'
p33
aS'ETag: "7f4d9453e858831a26569e2a722e2d84"\r\n'
p34
aS'Server: RapidAPI-1.0.16\r\n'
p35
aS'X-RapidAPI-Region: AWS - us-east-1\r\n'
p36
aS'X-RapidAPI-Version: 1.0.16\r\n'
p37
aS'X-RateLimit-queries-Limit: 45000\r\n'
p38
aS'X-RateLimit-queries-Remaining: 44237\r\n'
p39
aS'Content-Length: 121\r\n'
p40
aS'Connection: Close\r\n'
p41
asS'dict'
p42
(dp43
S'x-ratelimit-queries-limit'
p44
S'45000'
p45
sS'x-rapidapi-version'
p46
S'1.0.16'
p47
sS'x-ratelimit-queries-remaining'
p48
S'44237'
p49
sS'content-length'
p50
S'121'
p51
sS'server'
p52
S'RapidAPI-1.0.16'
p53
sS'x-rapidapi-region'
p54
S'AWS - us-east-1'
p55
sS'connection'
p56
S'Close'
p57
sS'etag'
p58
S'"7f4d9453e858831a26569e2a722e2d84"'
p59
sS'date'
p60
S'Tue, 07 May 2019 20:27:37 GMT'
p61
sS'content-type'
p62
S'application/json'
p63
ssS'typeheader'
p64
g63
sS'encodingheader'
p65
NsS'seekable'
p66
I0
sS'unixfrom'
p67
g21
sS'plisttext'
p68
g21
sS'plist'
p69
(lp70
sbsS'_raw_body'
p71
S'{"probability": {"neg": 0.45349351049589581, "neutral": 0.25255563363167605, "pos": 0.54650648950410419}, "label": "pos"}'
p72
sb.